
fork_userspace:     file format elf32-littlearm


Disassembly of section .init:

00010428 <_init>:
   10428:	e92d4008 	push	{r3, lr}
   1042c:	eb000035 	bl	10508 <call_weak_fn>
   10430:	e8bd8008 	pop	{r3, pc}

Disassembly of section .plt:

00010434 <printf@plt-0x14>:
   10434:	e52de004 	push	{lr}		; (str lr, [sp, #-4]!)
   10438:	e59fe004 	ldr	lr, [pc, #4]	; 10444 <_init+0x1c>
   1043c:	e08fe00e 	add	lr, pc, lr
   10440:	e5bef008 	ldr	pc, [lr, #8]!
   10444:	00010bbc 			; <UNDEFINED> instruction: 0x00010bbc

00010448 <printf@plt>:
   10448:	e28fc600 	add	ip, pc, #0, 12
   1044c:	e28cca10 	add	ip, ip, #16, 20	; 0x10000
   10450:	e5bcfbbc 	ldr	pc, [ip, #3004]!	; 0xbbc

00010454 <getchar@plt>:
   10454:	e28fc600 	add	ip, pc, #0, 12
   10458:	e28cca10 	add	ip, ip, #16, 20	; 0x10000
   1045c:	e5bcfbb4 	ldr	pc, [ip, #2996]!	; 0xbb4

00010460 <__stack_chk_fail@plt>:
   10460:	e28fc600 	add	ip, pc, #0, 12
   10464:	e28cca10 	add	ip, ip, #16, 20	; 0x10000
   10468:	e5bcfbac 	ldr	pc, [ip, #2988]!	; 0xbac

0001046c <wait@plt>:
   1046c:	e28fc600 	add	ip, pc, #0, 12
   10470:	e28cca10 	add	ip, ip, #16, 20	; 0x10000
   10474:	e5bcfba4 	ldr	pc, [ip, #2980]!	; 0xba4

00010478 <perror@plt>:
   10478:	e28fc600 	add	ip, pc, #0, 12
   1047c:	e28cca10 	add	ip, ip, #16, 20	; 0x10000
   10480:	e5bcfb9c 	ldr	pc, [ip, #2972]!	; 0xb9c

00010484 <__libc_start_main@plt>:
   10484:	e28fc600 	add	ip, pc, #0, 12
   10488:	e28cca10 	add	ip, ip, #16, 20	; 0x10000
   1048c:	e5bcfb94 	ldr	pc, [ip, #2964]!	; 0xb94

00010490 <__gmon_start__@plt>:
   10490:	e28fc600 	add	ip, pc, #0, 12
   10494:	e28cca10 	add	ip, ip, #16, 20	; 0x10000
   10498:	e5bcfb8c 	ldr	pc, [ip, #2956]!	; 0xb8c

0001049c <getpid@plt>:
   1049c:	e28fc600 	add	ip, pc, #0, 12
   104a0:	e28cca10 	add	ip, ip, #16, 20	; 0x10000
   104a4:	e5bcfb84 	ldr	pc, [ip, #2948]!	; 0xb84

000104a8 <exit@plt>:
   104a8:	e28fc600 	add	ip, pc, #0, 12
   104ac:	e28cca10 	add	ip, ip, #16, 20	; 0x10000
   104b0:	e5bcfb7c 	ldr	pc, [ip, #2940]!	; 0xb7c

000104b4 <fork@plt>:
   104b4:	e28fc600 	add	ip, pc, #0, 12
   104b8:	e28cca10 	add	ip, ip, #16, 20	; 0x10000
   104bc:	e5bcfb74 	ldr	pc, [ip, #2932]!	; 0xb74

000104c0 <abort@plt>:
   104c0:	e28fc600 	add	ip, pc, #0, 12
   104c4:	e28cca10 	add	ip, ip, #16, 20	; 0x10000
   104c8:	e5bcfb6c 	ldr	pc, [ip, #2924]!	; 0xb6c

Disassembly of section .text:

000104cc <_start>:
   104cc:	e3a0b000 	mov	fp, #0
   104d0:	e3a0e000 	mov	lr, #0
   104d4:	e49d1004 	pop	{r1}		; (ldr r1, [sp], #4)
   104d8:	e1a0200d 	mov	r2, sp
   104dc:	e52d2004 	push	{r2}		; (str r2, [sp, #-4]!)
   104e0:	e52d0004 	push	{r0}		; (str r0, [sp, #-4]!)
   104e4:	e59fc010 	ldr	ip, [pc, #16]	; 104fc <_start+0x30>
   104e8:	e52dc004 	push	{ip}		; (str ip, [sp, #-4]!)
   104ec:	e59f000c 	ldr	r0, [pc, #12]	; 10500 <_start+0x34>
   104f0:	e59f300c 	ldr	r3, [pc, #12]	; 10504 <_start+0x38>
   104f4:	ebffffe2 	bl	10484 <__libc_start_main@plt>
   104f8:	ebfffff0 	bl	104c0 <abort@plt>
   104fc:	00010774 	andeq	r0, r1, r4, ror r7
   10500:	000105f4 	strdeq	r0, [r1], -r4
   10504:	00010714 	andeq	r0, r1, r4, lsl r7

00010508 <call_weak_fn>:
   10508:	e59f3014 	ldr	r3, [pc, #20]	; 10524 <call_weak_fn+0x1c>
   1050c:	e59f2014 	ldr	r2, [pc, #20]	; 10528 <call_weak_fn+0x20>
   10510:	e08f3003 	add	r3, pc, r3
   10514:	e7932002 	ldr	r2, [r3, r2]
   10518:	e3520000 	cmp	r2, #0
   1051c:	012fff1e 	bxeq	lr
   10520:	eaffffda 	b	10490 <__gmon_start__@plt>
   10524:	00010ae8 	andeq	r0, r1, r8, ror #21
   10528:	00000038 	andeq	r0, r0, r8, lsr r0

0001052c <deregister_tm_clones>:
   1052c:	e59f301c 	ldr	r3, [pc, #28]	; 10550 <deregister_tm_clones+0x24>
   10530:	e59f001c 	ldr	r0, [pc, #28]	; 10554 <deregister_tm_clones+0x28>
   10534:	e0433000 	sub	r3, r3, r0
   10538:	e3530006 	cmp	r3, #6
   1053c:	912fff1e 	bxls	lr
   10540:	e59f3010 	ldr	r3, [pc, #16]	; 10558 <deregister_tm_clones+0x2c>
   10544:	e3530000 	cmp	r3, #0
   10548:	012fff1e 	bxeq	lr
   1054c:	e12fff13 	bx	r3
   10550:	00021047 	andeq	r1, r2, r7, asr #32
   10554:	00021044 	andeq	r1, r2, r4, asr #32
   10558:	00000000 	andeq	r0, r0, r0

0001055c <register_tm_clones>:
   1055c:	e59f1024 	ldr	r1, [pc, #36]	; 10588 <register_tm_clones+0x2c>
   10560:	e59f0024 	ldr	r0, [pc, #36]	; 1058c <register_tm_clones+0x30>
   10564:	e0411000 	sub	r1, r1, r0
   10568:	e1a01141 	asr	r1, r1, #2
   1056c:	e0811fa1 	add	r1, r1, r1, lsr #31
   10570:	e1b010c1 	asrs	r1, r1, #1
   10574:	012fff1e 	bxeq	lr
   10578:	e59f3010 	ldr	r3, [pc, #16]	; 10590 <register_tm_clones+0x34>
   1057c:	e3530000 	cmp	r3, #0
   10580:	012fff1e 	bxeq	lr
   10584:	e12fff13 	bx	r3
   10588:	00021044 	andeq	r1, r2, r4, asr #32
   1058c:	00021044 	andeq	r1, r2, r4, asr #32
   10590:	00000000 	andeq	r0, r0, r0

00010594 <__do_global_dtors_aux>:
   10594:	e92d4010 	push	{r4, lr}
   10598:	e59f4018 	ldr	r4, [pc, #24]	; 105b8 <__do_global_dtors_aux+0x24>
   1059c:	e5d43000 	ldrb	r3, [r4]
   105a0:	e3530000 	cmp	r3, #0
   105a4:	18bd8010 	popne	{r4, pc}
   105a8:	ebffffdf 	bl	1052c <deregister_tm_clones>
   105ac:	e3a03001 	mov	r3, #1
   105b0:	e5c43000 	strb	r3, [r4]
   105b4:	e8bd8010 	pop	{r4, pc}
   105b8:	00022004 	andeq	r2, r2, r4

000105bc <frame_dummy>:
   105bc:	e59f0028 	ldr	r0, [pc, #40]	; 105ec <frame_dummy+0x30>
   105c0:	e5903000 	ldr	r3, [r0]
   105c4:	e3530000 	cmp	r3, #0
   105c8:	1a000000 	bne	105d0 <frame_dummy+0x14>
   105cc:	eaffffe2 	b	1055c <register_tm_clones>
   105d0:	e59f3018 	ldr	r3, [pc, #24]	; 105f0 <frame_dummy+0x34>
   105d4:	e3530000 	cmp	r3, #0
   105d8:	0afffffb 	beq	105cc <frame_dummy+0x10>
   105dc:	e92d4010 	push	{r4, lr}
   105e0:	e12fff33 	blx	r3
   105e4:	e8bd4010 	pop	{r4, lr}
   105e8:	eaffffdb 	b	1055c <register_tm_clones>
   105ec:	00020f0c 	andeq	r0, r2, ip, lsl #30
   105f0:	00000000 	andeq	r0, r0, r0

000105f4 <main>:
   105f4:	e92d4800 	push	{fp, lr}
   105f8:	e28db004 	add	fp, sp, #4
   105fc:	e24dd018 	sub	sp, sp, #24
   10600:	e59f30f4 	ldr	r3, [pc, #244]	; 106fc <main+0x108>
   10604:	e5933000 	ldr	r3, [r3]
   10608:	e50b3008 	str	r3, [fp, #-8]
   1060c:	ebffffa8 	bl	104b4 <fork@plt>
   10610:	e1a03000 	mov	r3, r0
   10614:	e50b300c 	str	r3, [fp, #-12]
   10618:	e51b300c 	ldr	r3, [fp, #-12]
   1061c:	e3530000 	cmp	r3, #0
   10620:	1a000014 	bne	10678 <main+0x84>
   10624:	ebffff9c 	bl	1049c <getpid@plt>
   10628:	e1a03000 	mov	r3, r0
   1062c:	e1a01003 	mov	r1, r3
   10630:	e59f00c8 	ldr	r0, [pc, #200]	; 10700 <main+0x10c>
   10634:	ebffff83 	bl	10448 <printf@plt>
   10638:	ebffff85 	bl	10454 <getchar@plt>
   1063c:	e50b0010 	str	r0, [fp, #-16]
   10640:	ea000007 	b	10664 <main+0x70>
   10644:	e51b3010 	ldr	r3, [fp, #-16]
   10648:	e353004d 	cmp	r3, #77	; 0x4d
   1064c:	1a000002 	bne	1065c <main+0x68>
   10650:	e59f30ac 	ldr	r3, [pc, #172]	; 10704 <main+0x110>
   10654:	e3a02054 	mov	r2, #84	; 0x54
   10658:	e5c32000 	strb	r2, [r3]
   1065c:	ebffff7c 	bl	10454 <getchar@plt>
   10660:	e50b0010 	str	r0, [fp, #-16]
   10664:	e51b3010 	ldr	r3, [fp, #-16]
   10668:	e3530045 	cmp	r3, #69	; 0x45
   1066c:	1afffff4 	bne	10644 <main+0x50>
   10670:	e3a00000 	mov	r0, #0
   10674:	ebffff8b 	bl	104a8 <exit@plt>
   10678:	e51b300c 	ldr	r3, [fp, #-12]
   1067c:	e3530000 	cmp	r3, #0
   10680:	da000011 	ble	106cc <main+0xd8>
   10684:	ebffff84 	bl	1049c <getpid@plt>
   10688:	e1a03000 	mov	r3, r0
   1068c:	e51b200c 	ldr	r2, [fp, #-12]
   10690:	e1a01003 	mov	r1, r3
   10694:	e59f006c 	ldr	r0, [pc, #108]	; 10708 <main+0x114>
   10698:	ebffff6a 	bl	10448 <printf@plt>
   1069c:	e24b3018 	sub	r3, fp, #24
   106a0:	e1a00003 	mov	r0, r3
   106a4:	ebffff70 	bl	1046c <wait@plt>
   106a8:	e51b3018 	ldr	r3, [fp, #-24]	; 0xffffffe8
   106ac:	e50b3014 	str	r3, [fp, #-20]	; 0xffffffec
   106b0:	e51b3014 	ldr	r3, [fp, #-20]	; 0xffffffec
   106b4:	e2033cff 	and	r3, r3, #65280	; 0xff00
   106b8:	e1a03443 	asr	r3, r3, #8
   106bc:	e1a01003 	mov	r1, r3
   106c0:	e59f0044 	ldr	r0, [pc, #68]	; 1070c <main+0x118>
   106c4:	ebffff5f 	bl	10448 <printf@plt>
   106c8:	ea000001 	b	106d4 <main+0xe0>
   106cc:	e59f003c 	ldr	r0, [pc, #60]	; 10710 <main+0x11c>
   106d0:	ebffff68 	bl	10478 <perror@plt>
   106d4:	e3a03000 	mov	r3, #0
   106d8:	e1a00003 	mov	r0, r3
   106dc:	e59f3018 	ldr	r3, [pc, #24]	; 106fc <main+0x108>
   106e0:	e51b2008 	ldr	r2, [fp, #-8]
   106e4:	e5933000 	ldr	r3, [r3]
   106e8:	e1520003 	cmp	r2, r3
   106ec:	0a000000 	beq	106f4 <main+0x100>
   106f0:	ebffff5a 	bl	10460 <__stack_chk_fail@plt>
   106f4:	e24bd004 	sub	sp, fp, #4
   106f8:	e8bd8800 	pop	{fp, pc}
   106fc:	00022000 	andeq	r2, r2, r0
   10700:	00010784 	andeq	r0, r1, r4, lsl #15
   10704:	00023000 	andeq	r3, r2, r0
   10708:	0001079c 	muleq	r1, ip, r7
   1070c:	000107c4 	andeq	r0, r1, r4, asr #15
   10710:	000107ec 	andeq	r0, r1, ip, ror #15

00010714 <__libc_csu_init>:
   10714:	e92d47f0 	push	{r4, r5, r6, r7, r8, r9, sl, lr}
   10718:	e59f604c 	ldr	r6, [pc, #76]	; 1076c <__libc_csu_init+0x58>
   1071c:	e59f504c 	ldr	r5, [pc, #76]	; 10770 <__libc_csu_init+0x5c>
   10720:	e08f6006 	add	r6, pc, r6
   10724:	e08f5005 	add	r5, pc, r5
   10728:	e0466005 	sub	r6, r6, r5
   1072c:	e1a07000 	mov	r7, r0
   10730:	e1a08001 	mov	r8, r1
   10734:	e1a09002 	mov	r9, r2
   10738:	ebffff3a 	bl	10428 <_init>
   1073c:	e1b06146 	asrs	r6, r6, #2
   10740:	08bd87f0 	popeq	{r4, r5, r6, r7, r8, r9, sl, pc}
   10744:	e3a04000 	mov	r4, #0
   10748:	e2844001 	add	r4, r4, #1
   1074c:	e4953004 	ldr	r3, [r5], #4
   10750:	e1a02009 	mov	r2, r9
   10754:	e1a01008 	mov	r1, r8
   10758:	e1a00007 	mov	r0, r7
   1075c:	e12fff33 	blx	r3
   10760:	e1540006 	cmp	r4, r6
   10764:	1afffff7 	bne	10748 <__libc_csu_init+0x34>
   10768:	e8bd87f0 	pop	{r4, r5, r6, r7, r8, r9, sl, pc}
   1076c:	000107e0 	andeq	r0, r1, r0, ror #15
   10770:	000107d8 	ldrdeq	r0, [r1], -r8

00010774 <__libc_csu_fini>:
   10774:	e12fff1e 	bx	lr

Disassembly of section .fini:

00010778 <_fini>:
   10778:	e92d4008 	push	{r3, lr}
   1077c:	e8bd8008 	pop	{r3, pc}
